; Function Attrs: mustprogress uwtable
define hidden noundef ptr @_Z12mk_qe_tacticR11ast_managerRK10params_ref(ptr noundef nonnull align 8 dereferenceable(976) %0, ptr noundef nonnull align 8 dereferenceable(8) %1) local_unnamed_addr #3 personality ptr @__gxx_personality_v0 {
  %3 = tail call noalias noundef ptr @_ZN6memory8allocateEm(i64 noundef 48)
  %4 = getelementptr inbounds nuw i8, ptr %3, i64 8
  store i32 0, ptr %4, align 8, !tbaa !3
  store ptr getelementptr inbounds nuw inrange(-16, 192) (i8, ptr @_ZTV9qe_tactic, i64 16), ptr %3, align 8, !tbaa !9
  %5 = getelementptr inbounds nuw i8, ptr %3, i64 16
  tail call void @llvm.memset.p0.i64(ptr noundef nonnull align 8 dereferenceable(16) %5, i8 0, i64 16, i1 false)
  %6 = getelementptr inbounds nuw i8, ptr %3, i64 40
  invoke void @_ZN10params_refC1ERKS_(ptr noundef nonnull align 8 dereferenceable(8) %6, ptr noundef nonnull align 8 dereferenceable(8) %1)
          to label %7 unwind label %10

7:                                                ; preds = %2
  %8 = invoke noalias noundef ptr @_ZN6memory8allocateEm(i64 noundef 896)
          to label %9 unwind label %12

9:                                                ; preds = %7
  invoke void @_ZN9qe_tactic3impC2ER11ast_managerRK10params_ref(ptr noundef nonnull align 8 dereferenceable(896) %8, ptr noundef nonnull align 8 dereferenceable(976) %0, ptr noundef nonnull align 8 dereferenceable(8) %1)
          to label %_ZN9qe_tacticC2ER11ast_managerRK10params_ref.exit unwind label %12

10:                                               ; preds = %2
  %11 = landingpad { ptr, i32 }
          cleanup
  br label %14

12:                                               ; preds = %9, %7
  %13 = landingpad { ptr, i32 }
          cleanup
  tail call void @_ZN10params_refD1Ev(ptr noundef nonnull align 8 dereferenceable(8) %6) #18
  br label %14

14:                                               ; preds = %12, %10
  %.pn.i = phi { ptr, i32 } [ %13, %12 ], [ %11, %10 ]
  tail call void @_ZN10statisticsD2Ev(ptr noundef nonnull align 8 dereferenceable(16) %5) #18
  resume { ptr, i32 } %.pn.i

_ZN9qe_tacticC2ER11ast_managerRK10params_ref.exit: ; preds = %9
  %15 = getelementptr inbounds nuw i8, ptr %3, i64 32
  store ptr %8, ptr %15, align 8, !tbaa !11
  %16 = tail call noundef ptr @_Z5cleanP6tactic(ptr noundef nonnull %3)
  ret ptr %16
}